target datalayout = "e-m:e-p270:32:32-p271:32:32-p272:64:64-i64:64-i128:128-f80:128-n8:16:32:64-S128"
target triple = "x86_64-pc-linux-gnu"

%struct.AVCodecContext = type { ptr, i32, i32, ptr, i32, i32, ptr, ptr, ptr, i64, i32, i32, ptr, i32, %struct.AVRational, %struct.AVRational, %struct.AVRational, i32, i32, i32, i32, i32, %struct.AVRational, i32, i32, i32, i32, i32, i32, i32, i32, i32, i32, i32, ptr, ptr, i32, float, float, float, float, float, float, float, float, float, i32, i32, i32, i32, i32, i32, i32, i32, i32, i32, i32, i32, ptr, ptr, ptr, i32, i32, i32, i32, i32, i32, i32, i32, i32, i32, %struct.AVChannelLayout, i32, i32, i32, i32, i32, i32, i32, i32, ptr, i32, i32, i32, float, float, i32, i32, i32, i32, i32, ptr, i64, i64, float, float, i32, i32, ptr, ptr, i32, i32, i32, i32, i32, ptr, ptr, ptr, ptr, i32, i32, [8 x i64], i32, i32, i32, i32, i32, i32, i32, ptr, ptr, i32, i32, i32, i32, i32, i32, i32, i32, i32, i32, ptr, ptr, i32, i32, ptr, ptr, ptr, ptr, i32, i32, i64, i32, i32, i64, ptr, i64, ptr, i32, ptr, i32 }
%struct.AVRational = type { i32, i32 }
%struct.AVChannelLayout = type { i32, i32, %union.anon.0, ptr }
%union.anon.0 = type { i64 }
%struct.VqcContext = type { ptr, ptr, ptr, ptr, ptr, [4 x [256 x i16]] }

@vqc_decode_init.init_static_once = internal global i32 0, align 4

; Function Attrs: cold nounwind optsize uwtable
define internal i32 @vqc_decode_init(ptr noundef %0) #0 {
  %2 = alloca i32, align 4
  %3 = alloca ptr, align 8
  %4 = alloca ptr, align 8
  %5 = alloca i32, align 4
  store ptr %0, ptr %3, align 8, !tbaa !4
  call void @llvm.lifetime.start.p0(i64 8, ptr %4) #8
  %6 = load ptr, ptr %3, align 8, !tbaa !4
  %7 = getelementptr inbounds nuw %struct.AVCodecContext, ptr %6, i32 0, i32 6
  %8 = load ptr, ptr %7, align 8, !tbaa !9
  store ptr %8, ptr %4, align 8, !tbaa !29
  %9 = load ptr, ptr %3, align 8, !tbaa !4
  %10 = getelementptr inbounds nuw %struct.AVCodecContext, ptr %9, i32 0, i32 18
  %11 = load i32, ptr %10, align 8, !tbaa !31
  %12 = and i32 %11, 15
  %13 = icmp ne i32 %12, 0
  br i1 %13, label %14, label %15

14:                                               ; preds = %1
  store i32 -1163346256, ptr %2, align 4
  store i32 1, ptr %5, align 4
  br label %89

15:                                               ; preds = %1
  %16 = load ptr, ptr %3, align 8, !tbaa !4
  %17 = getelementptr inbounds nuw %struct.AVCodecContext, ptr %16, i32 0, i32 18
  %18 = load i32, ptr %17, align 8, !tbaa !31
  %19 = load ptr, ptr %3, align 8, !tbaa !4
  %20 = getelementptr inbounds nuw %struct.AVCodecContext, ptr %19, i32 0, i32 19
  %21 = load i32, ptr %20, align 4, !tbaa !32
  %22 = mul nsw i32 %18, %21
  %23 = mul nsw i32 %22, 3
  %24 = sdiv i32 %23, 2
  %25 = sext i32 %24 to i64
  %26 = call noalias ptr @av_malloc(i64 noundef %25)
  %27 = load ptr, ptr %4, align 8, !tbaa !29
  %28 = getelementptr inbounds nuw %struct.VqcContext, ptr %27, i32 0, i32 1
  store ptr %26, ptr %28, align 8, !tbaa !33
  %29 = load ptr, ptr %4, align 8, !tbaa !29
  %30 = getelementptr inbounds nuw %struct.VqcContext, ptr %29, i32 0, i32 1
  %31 = load ptr, ptr %30, align 8, !tbaa !33
  %32 = icmp ne ptr %31, null
  br i1 %32, label %34, label %33

33:                                               ; preds = %15
  store i32 -12, ptr %2, align 4
  store i32 1, ptr %5, align 4
  br label %89

34:                                               ; preds = %15
  %35 = load ptr, ptr %3, align 8, !tbaa !4
  %36 = getelementptr inbounds nuw %struct.AVCodecContext, ptr %35, i32 0, i32 18
  %37 = load i32, ptr %36, align 8, !tbaa !31
  %38 = mul nsw i32 2, %37
  %39 = sext i32 %38 to i64
  %40 = call ptr @av_malloc_array(i64 noundef %39, i64 noundef 2)
  %41 = load ptr, ptr %4, align 8, !tbaa !29
  %42 = getelementptr inbounds nuw %struct.VqcContext, ptr %41, i32 0, i32 2
  store ptr %40, ptr %42, align 8, !tbaa !36
  %43 = load ptr, ptr %4, align 8, !tbaa !29
  %44 = getelementptr inbounds nuw %struct.VqcContext, ptr %43, i32 0, i32 2
  %45 = load ptr, ptr %44, align 8, !tbaa !36
  %46 = icmp ne ptr %45, null
  br i1 %46, label %48, label %47

47:                                               ; preds = %34
  store i32 -12, ptr %2, align 4
  store i32 1, ptr %5, align 4
  br label %89

48:                                               ; preds = %34
  %49 = load ptr, ptr %3, align 8, !tbaa !4
  %50 = getelementptr inbounds nuw %struct.AVCodecContext, ptr %49, i32 0, i32 18
  %51 = load i32, ptr %50, align 8, !tbaa !31
  %52 = sdiv i32 %51, 2
  %53 = sext i32 %52 to i64
  %54 = call ptr @av_malloc_array(i64 noundef %53, i64 noundef 2)
  %55 = load ptr, ptr %4, align 8, !tbaa !29
  %56 = getelementptr inbounds nuw %struct.VqcContext, ptr %55, i32 0, i32 3
  store ptr %54, ptr %56, align 8, !tbaa !37
  %57 = load ptr, ptr %4, align 8, !tbaa !29
  %58 = getelementptr inbounds nuw %struct.VqcContext, ptr %57, i32 0, i32 3
  %59 = load ptr, ptr %58, align 8, !tbaa !37
  %60 = icmp ne ptr %59, null
  br i1 %60, label %62, label %61

61:                                               ; preds = %48
  store i32 -12, ptr %2, align 4
  store i32 1, ptr %5, align 4
  br label %89

62:                                               ; preds = %48
  %63 = load ptr, ptr %3, align 8, !tbaa !4
  %64 = getelementptr inbounds nuw %struct.AVCodecContext, ptr %63, i32 0, i32 18
  %65 = load i32, ptr %64, align 8, !tbaa !31
  %66 = sdiv i32 %65, 2
  %67 = sext i32 %66 to i64
  %68 = call ptr @av_malloc_array(i64 noundef %67, i64 noundef 2)
  %69 = load ptr, ptr %4, align 8, !tbaa !29
  %70 = getelementptr inbounds nuw %struct.VqcContext, ptr %69, i32 0, i32 4
  store ptr %68, ptr %70, align 8, !tbaa !38
  %71 = load ptr, ptr %4, align 8, !tbaa !29
  %72 = getelementptr inbounds nuw %struct.VqcContext, ptr %71, i32 0, i32 4
  %73 = load ptr, ptr %72, align 8, !tbaa !38
  %74 = icmp ne ptr %73, null
  br i1 %74, label %76, label %75

75:                                               ; preds = %62
  store i32 -12, ptr %2, align 4
  store i32 1, ptr %5, align 4
  br label %89

76:                                               ; preds = %62
  %77 = load ptr, ptr %3, align 8, !tbaa !4
  %78 = getelementptr inbounds nuw %struct.AVCodecContext, ptr %77, i32 0, i32 23
  store i32 0, ptr %78, align 8, !tbaa !39
  %79 = call ptr @av_frame_alloc()
  %80 = load ptr, ptr %4, align 8, !tbaa !29
  %81 = getelementptr inbounds nuw %struct.VqcContext, ptr %80, i32 0, i32 0
  store ptr %79, ptr %81, align 8, !tbaa !40
  %82 = load ptr, ptr %4, align 8, !tbaa !29
  %83 = getelementptr inbounds nuw %struct.VqcContext, ptr %82, i32 0, i32 0
  %84 = load ptr, ptr %83, align 8, !tbaa !40
  %85 = icmp ne ptr %84, null
  br i1 %85, label %87, label %86

86:                                               ; preds = %76
  store i32 -12, ptr %2, align 4
  store i32 1, ptr %5, align 4
  br label %89

87:                                               ; preds = %76
  %88 = call i32 @pthread_once(ptr noundef @vqc_decode_init.init_static_once, ptr noundef @vqc_init_static_data)
  store i32 0, ptr %2, align 4
  store i32 1, ptr %5, align 4
  br label %89

89:                                               ; preds = %87, %86, %75, %61, %47, %33, %14
  call void @llvm.lifetime.end.p0(i64 8, ptr %4) #8
  %90 = load i32, ptr %2, align 4
  ret i32 %90
}