; Function Attrs: cold nounwind optsize uwtable
define internal range(i32 -1163346256, 1) i32 @vqc_decode_init(ptr noundef captures(none) %0) #0 {
  %2 = getelementptr inbounds nuw i8, ptr %0, i64 32
  %3 = load ptr, ptr %2, align 8, !tbaa !4
  %4 = getelementptr inbounds nuw i8, ptr %0, i64 112
  %5 = load i32, ptr %4, align 8, !tbaa !27
  %6 = and i32 %5, 15
  %.not = icmp eq i32 %6, 0
  br i1 %.not, label %7, label %39

7:                                                ; preds = %1
  %8 = getelementptr inbounds nuw i8, ptr %0, i64 116
  %9 = load i32, ptr %8, align 4, !tbaa !28
  %10 = mul nsw i32 %9, %5
  %11 = ashr exact i32 %10, 1
  %12 = add nsw i32 %11, %10
  %13 = sext i32 %12 to i64
  %14 = tail call noalias ptr @av_malloc(i64 noundef %13) #7
  %15 = getelementptr inbounds nuw i8, ptr %3, i64 8
  store ptr %14, ptr %15, align 8, !tbaa !29
  %.not18 = icmp eq ptr %14, null
  br i1 %.not18, label %39, label %16

16:                                               ; preds = %7
  %17 = load i32, ptr %4, align 8, !tbaa !27
  %18 = shl nsw i32 %17, 1
  %19 = sext i32 %18 to i64
  %20 = tail call ptr @av_malloc_array(i64 noundef %19, i64 noundef 2) #7
  %21 = getelementptr inbounds nuw i8, ptr %3, i64 16
  store ptr %20, ptr %21, align 8, !tbaa !32
  %.not19 = icmp eq ptr %20, null
  br i1 %.not19, label %39, label %22

22:                                               ; preds = %16
  %23 = load i32, ptr %4, align 8, !tbaa !27
  %24 = sdiv i32 %23, 2
  %25 = sext i32 %24 to i64
  %26 = tail call ptr @av_malloc_array(i64 noundef %25, i64 noundef 2) #7
  %27 = getelementptr inbounds nuw i8, ptr %3, i64 24
  store ptr %26, ptr %27, align 8, !tbaa !33
  %.not20 = icmp eq ptr %26, null
  br i1 %.not20, label %39, label %28

28:                                               ; preds = %22
  %29 = load i32, ptr %4, align 8, !tbaa !27
  %30 = sdiv i32 %29, 2
  %31 = sext i32 %30 to i64
  %32 = tail call ptr @av_malloc_array(i64 noundef %31, i64 noundef 2) #7
  %33 = getelementptr inbounds nuw i8, ptr %3, i64 32
  store ptr %32, ptr %33, align 8, !tbaa !34
  %.not21 = icmp eq ptr %32, null
  br i1 %.not21, label %39, label %34

34:                                               ; preds = %28
  %35 = getelementptr inbounds nuw i8, ptr %0, i64 136
  store i32 0, ptr %35, align 8, !tbaa !35
  %36 = tail call ptr @av_frame_alloc() #7
  store ptr %36, ptr %3, align 8, !tbaa !36
  %.not22 = icmp eq ptr %36, null
  br i1 %.not22, label %39, label %37

37:                                               ; preds = %34
  %38 = tail call i32 @pthread_once(ptr noundef nonnull @vqc_decode_init.init_static_once, ptr noundef nonnull @vqc_init_static_data) #7
  br label %39

39:                                               ; preds = %34, %28, %22, %16, %7, %1, %37
  %.0 = phi i32 [ 0, %37 ], [ -1163346256, %1 ], [ -12, %7 ], [ -12, %16 ], [ -12, %22 ], [ -12, %28 ], [ -12, %34 ]
  ret i32 %.0
}